; Function Attrs: nounwind uwtable
define hidden ptr @SDL_AcquireCameraFrame_REAL(ptr noundef %0, ptr noundef writeonly captures(address_is_null) %1) local_unnamed_addr #1 {
  %.not = icmp eq ptr %1, null
  br i1 %.not, label %4, label %3

3:                                                ; preds = %2
  store i64 0, ptr %1, align 8
  br label %4

4:                                                ; preds = %3, %2
  %.not34 = icmp eq ptr %0, null
  br i1 %.not34, label %5, label %7

5:                                                ; preds = %4
  %6 = tail call zeroext i1 (ptr, ...) @SDL_SetError_REAL(ptr noundef nonnull @.str, ptr noundef nonnull @.str.5) #11
  br label %ReleaseCamera.exit36

7:                                                ; preds = %4
  %8 = getelementptr inbounds nuw i8, ptr %0, i64 20
  %9 = tail call i32 @SDL_AddAtomicInt_REAL(ptr noundef nonnull %8, i32 noundef 1) #11
  %10 = load ptr, ptr %0, align 8
  tail call void @SDL_LockMutex_REAL(ptr noundef %10) #11
  %11 = getelementptr inbounds nuw i8, ptr %0, i64 460
  %12 = load i32, ptr %11, align 4
  %13 = icmp slt i32 %12, 1
  br i1 %13, label %14, label %31

14:                                               ; preds = %7
  %15 = load ptr, ptr %0, align 8
  tail call void @SDL_UnlockMutex_REAL(ptr noundef %15) #11
  %16 = tail call i32 @SDL_AddAtomicInt_REAL(ptr noundef nonnull %8, i32 noundef -1) #11
  %17 = icmp eq i32 %16, 1
  br i1 %17, label %18, label %ReleaseCamera.exit

18:                                               ; preds = %14
  %19 = load ptr, ptr getelementptr inbounds nuw (i8, ptr @camera_driver, i64 88), align 8
  tail call void @SDL_LockRWLockForWriting_REAL(ptr noundef %19) #11
  %20 = load ptr, ptr getelementptr inbounds nuw (i8, ptr @camera_driver, i64 96), align 8
  %21 = getelementptr inbounds nuw i8, ptr %0, i64 108
  %22 = load i32, ptr %21, align 4
  %23 = zext i32 %22 to i64
  %24 = inttoptr i64 %23 to ptr
  %25 = tail call zeroext i1 @SDL_RemoveFromHashTable(ptr noundef %20, ptr noundef %24) #11
  br i1 %25, label %26, label %28

26:                                               ; preds = %18
  %27 = tail call i32 @SDL_AddAtomicInt_REAL(ptr noundef nonnull getelementptr inbounds nuw (i8, ptr @camera_driver, i64 128), i32 noundef -1) #11
  br label %28

28:                                               ; preds = %26, %18
  %29 = load ptr, ptr getelementptr inbounds nuw (i8, ptr @camera_driver, i64 88), align 8
  tail call void @SDL_UnlockRWLock_REAL(ptr noundef %29) #11
  br label %ReleaseCamera.exit

ReleaseCamera.exit:                               ; preds = %14, %28
  %30 = tail call zeroext i1 (ptr, ...) @SDL_SetError_REAL(ptr noundef nonnull @.str.7) #11
  br label %ReleaseCamera.exit36

31:                                               ; preds = %7
  %32 = getelementptr inbounds nuw i8, ptr %0, i64 352
  br label %33

33:                                               ; preds = %33, %31
  %.028 = phi ptr [ %32, %31 ], [ %.027, %33 ]
  %.027 = phi ptr [ %32, %31 ], [ %35, %33 ]
  %34 = getelementptr inbounds nuw i8, ptr %.027, i64 16
  %35 = load ptr, ptr %34, align 8
  %.not35 = icmp eq ptr %35, null
  br i1 %.not35, label %36, label %33, !llvm.loop !20

36:                                               ; preds = %33
  %37 = getelementptr inbounds nuw i8, ptr %.027, i64 16
  %38 = icmp eq ptr %.027, %.028
  br i1 %38, label %49, label %39

39:                                               ; preds = %36
  br i1 %.not, label %43, label %40

40:                                               ; preds = %39
  %41 = getelementptr inbounds nuw i8, ptr %.027, i64 8
  %42 = load i64, ptr %41, align 8
  store i64 %42, ptr %1, align 8
  %.pre = load ptr, ptr %37, align 8
  br label %43

43:                                               ; preds = %40, %39
  %44 = phi ptr [ %.pre, %40 ], [ null, %39 ]
  %45 = load ptr, ptr %.027, align 8
  %46 = getelementptr inbounds nuw i8, ptr %.028, i64 16
  store ptr %44, ptr %46, align 8
  %47 = getelementptr inbounds nuw i8, ptr %0, i64 416
  %48 = load ptr, ptr %47, align 8
  store ptr %48, ptr %37, align 8
  store ptr %.027, ptr %47, align 8
  br label %49

49:                                               ; preds = %43, %36
  %.029 = phi ptr [ null, %36 ], [ %45, %43 ]
  %50 = load ptr, ptr %0, align 8
  tail call void @SDL_UnlockMutex_REAL(ptr noundef %50) #11
  %51 = tail call i32 @SDL_AddAtomicInt_REAL(ptr noundef nonnull %8, i32 noundef -1) #11
  %52 = icmp eq i32 %51, 1
  br i1 %52, label %53, label %ReleaseCamera.exit36

53:                                               ; preds = %49
  %54 = load ptr, ptr getelementptr inbounds nuw (i8, ptr @camera_driver, i64 88), align 8
  tail call void @SDL_LockRWLockForWriting_REAL(ptr noundef %54) #11
  %55 = load ptr, ptr getelementptr inbounds nuw (i8, ptr @camera_driver, i64 96), align 8
  %56 = getelementptr inbounds nuw i8, ptr %0, i64 108
  %57 = load i32, ptr %56, align 4
  %58 = zext i32 %57 to i64
  %59 = inttoptr i64 %58 to ptr
  %60 = tail call zeroext i1 @SDL_RemoveFromHashTable(ptr noundef %55, ptr noundef %59) #11
  br i1 %60, label %61, label %63

61:                                               ; preds = %53
  %62 = tail call i32 @SDL_AddAtomicInt_REAL(ptr noundef nonnull getelementptr inbounds nuw (i8, ptr @camera_driver, i64 128), i32 noundef -1) #11
  br label %63

63:                                               ; preds = %61, %53
  %64 = load ptr, ptr getelementptr inbounds nuw (i8, ptr @camera_driver, i64 88), align 8
  tail call void @SDL_UnlockRWLock_REAL(ptr noundef %64) #11
  br label %ReleaseCamera.exit36

ReleaseCamera.exit36:                             ; preds = %63, %49, %ReleaseCamera.exit, %5
  %.0 = phi ptr [ null, %5 ], [ null, %ReleaseCamera.exit ], [ %.029, %49 ], [ %.029, %63 ]
  ret ptr %.0
}